; Function Attrs: mustprogress nounwind uwtable
define dso_local noundef zeroext i1 @_ZN8CLParser15IsSystemIncludeENSt7__cxx1112basic_stringIcSt11char_traitsIcESaIcEEE(ptr noundef %0) local_unnamed_addr #3 align 2 {
  %2 = load ptr, ptr %0, align 8, !tbaa !12
  %3 = getelementptr inbounds nuw i8, ptr %0, i64 8
  %4 = load i64, ptr %3, align 8, !tbaa !15
  %5 = getelementptr inbounds nuw i8, ptr %2, i64 %4
  %.not6.i = icmp samesign eq i64 %4, 0
  br i1 %.not6.i, label %_ZSt9transformIN9__gnu_cxx17__normal_iteratorIPcNSt7__cxx1112basic_stringIcSt11char_traitsIcESaIcEEEEES9_PFccEET0_T_SD_SC_T1_.exit, label %.lr.ph.i

.lr.ph.i:                                         ; preds = %1, %.lr.ph.i
  %.sroa.0.08.i = phi ptr [ %10, %.lr.ph.i ], [ %2, %1 ]
  %6 = load i8, ptr %.sroa.0.08.i, align 1, !tbaa !14
  %7 = add i8 %6, -65
  %or.cond.i = icmp ult i8 %7, 26
  %8 = add nuw nsw i8 %6, 32
  %9 = select i1 %or.cond.i, i8 %8, i8 %6
  store i8 %9, ptr %.sroa.0.08.i, align 1, !tbaa !14
  %10 = getelementptr i8, ptr %.sroa.0.08.i, i64 1
  %.not.i = icmp eq ptr %10, %5
  br i1 %.not.i, label %_ZSt9transformIN9__gnu_cxx17__normal_iteratorIPcNSt7__cxx1112basic_stringIcSt11char_traitsIcESaIcEEEEES9_PFccEET0_T_SD_SC_T1_.exit, label %.lr.ph.i, !llvm.loop !21

_ZSt9transformIN9__gnu_cxx17__normal_iteratorIPcNSt7__cxx1112basic_stringIcSt11char_traitsIcESaIcEEEEES9_PFccEET0_T_SD_SC_T1_.exit: ; preds = %.lr.ph.i, %1
  %11 = tail call noundef i64 @_ZNKSt7__cxx1112basic_stringIcSt11char_traitsIcESaIcEE4findEPKcmm(ptr noundef nonnull align 8 dereferenceable(32) %0, ptr noundef nonnull @.str.2, i64 noundef 0, i64 noundef 13) #18
  %.not = icmp eq i64 %11, -1
  br i1 %.not, label %12, label %15

12:                                               ; preds = %_ZSt9transformIN9__gnu_cxx17__normal_iteratorIPcNSt7__cxx1112basic_stringIcSt11char_traitsIcESaIcEEEEES9_PFccEET0_T_SD_SC_T1_.exit
  %13 = tail call noundef i64 @_ZNKSt7__cxx1112basic_stringIcSt11char_traitsIcESaIcEE4findEPKcmm(ptr noundef nonnull align 8 dereferenceable(32) %0, ptr noundef nonnull @.str.3, i64 noundef 0, i64 noundef 23) #18
  %14 = icmp ne i64 %13, -1
  br label %15

15:                                               ; preds = %12, %_ZSt9transformIN9__gnu_cxx17__normal_iteratorIPcNSt7__cxx1112basic_stringIcSt11char_traitsIcESaIcEEEEES9_PFccEET0_T_SD_SC_T1_.exit
  %16 = phi i1 [ true, %_ZSt9transformIN9__gnu_cxx17__normal_iteratorIPcNSt7__cxx1112basic_stringIcSt11char_traitsIcESaIcEEEEES9_PFccEET0_T_SD_SC_T1_.exit ], [ %14, %12 ]
  ret i1 %16
}